target datalayout = "e-m:e-p270:32:32-p271:32:32-p272:64:64-i64:64-i128:128-f80:128-n8:16:32:64-S128"
target triple = "x86_64-pc-linux-gnu"

@.str.3 = private unnamed_addr constant [1 x i8] zeroinitializer, align 1
@.str.13 = private unnamed_addr constant [2 x i8] c":\00", align 1
@.str.14 = private unnamed_addr constant [2 x i8] c"\0A\00", align 1
@.str.15 = private unnamed_addr constant [4 x i8] c"%s\0A\00", align 1
@.str.16 = private unnamed_addr constant [5 x i8] c"    \00", align 1
@.str.17 = private unnamed_addr constant [7 x i8] c"%02x%s\00", align 1

; Function Attrs: nounwind uwtable
define i32 @ossl_bio_print_labeled_buf(ptr noundef %0, ptr noundef %1, ptr noundef %2, i64 noundef %3) #0 {
  %5 = alloca i32, align 4
  %6 = alloca ptr, align 8
  %7 = alloca ptr, align 8
  %8 = alloca ptr, align 8
  %9 = alloca i64, align 8
  %10 = alloca i64, align 8
  %11 = alloca i32, align 4
  store ptr %0, ptr %6, align 8, !tbaa !8
  store ptr %1, ptr %7, align 8, !tbaa !36
  store ptr %2, ptr %8, align 8, !tbaa !36
  store i64 %3, ptr %9, align 8, !tbaa !47
  call void @llvm.lifetime.start.p0(i64 8, ptr %10) #8
  %12 = load ptr, ptr %6, align 8, !tbaa !8
  %13 = load ptr, ptr %7, align 8, !tbaa !36
  %14 = call i32 (ptr, ptr, ...) @BIO_printf(ptr noundef %12, ptr noundef @.str.15, ptr noundef %13)
  %15 = icmp sle i32 %14, 0
  br i1 %15, label %16, label %17

16:                                               ; preds = %4
  store i32 0, ptr %5, align 4
  store i32 1, ptr %11, align 4
  br label %65

17:                                               ; preds = %4
  store i64 0, ptr %10, align 8, !tbaa !47
  br label %18

18:                                               ; preds = %56, %17
  %19 = load i64, ptr %10, align 8, !tbaa !47
  %20 = load i64, ptr %9, align 8, !tbaa !47
  %21 = icmp ult i64 %19, %20
  br i1 %21, label %22, label %59

22:                                               ; preds = %18
  %23 = load i64, ptr %10, align 8, !tbaa !47
  %24 = urem i64 %23, 15
  %25 = icmp eq i64 %24, 0
  br i1 %25, label %26, label %40

26:                                               ; preds = %22
  %27 = load i64, ptr %10, align 8, !tbaa !47
  %28 = icmp ugt i64 %27, 0
  br i1 %28, label %29, label %34

29:                                               ; preds = %26
  %30 = load ptr, ptr %6, align 8, !tbaa !8
  %31 = call i32 (ptr, ptr, ...) @BIO_printf(ptr noundef %30, ptr noundef @.str.14)
  %32 = icmp sle i32 %31, 0
  br i1 %32, label %33, label %34

33:                                               ; preds = %29
  store i32 0, ptr %5, align 4
  store i32 1, ptr %11, align 4
  br label %65

34:                                               ; preds = %29, %26
  %35 = load ptr, ptr %6, align 8, !tbaa !8
  %36 = call i32 (ptr, ptr, ...) @BIO_printf(ptr noundef %35, ptr noundef @.str.16)
  %37 = icmp sle i32 %36, 0
  br i1 %37, label %38, label %39

38:                                               ; preds = %34
  store i32 0, ptr %5, align 4
  store i32 1, ptr %11, align 4
  br label %65

39:                                               ; preds = %34
  br label %40

40:                                               ; preds = %39, %22
  %41 = load ptr, ptr %6, align 8, !tbaa !8
  %42 = load ptr, ptr %8, align 8, !tbaa !36
  %43 = load i64, ptr %10, align 8, !tbaa !47
  %44 = getelementptr inbounds nuw i8, ptr %42, i64 %43
  %45 = load i8, ptr %44, align 1, !tbaa !85
  %46 = zext i8 %45 to i32
  %47 = load i64, ptr %10, align 8, !tbaa !47
  %48 = load i64, ptr %9, align 8, !tbaa !47
  %49 = sub i64 %48, 1
  %50 = icmp eq i64 %47, %49
  %51 = select i1 %50, ptr @.str.3, ptr @.str.13
  %52 = call i32 (ptr, ptr, ...) @BIO_printf(ptr noundef %41, ptr noundef @.str.17, i32 noundef %46, ptr noundef %51)
  %53 = icmp sle i32 %52, 0
  br i1 %53, label %54, label %55

54:                                               ; preds = %40
  store i32 0, ptr %5, align 4
  store i32 1, ptr %11, align 4
  br label %65

55:                                               ; preds = %40
  br label %56

56:                                               ; preds = %55
  %57 = load i64, ptr %10, align 8, !tbaa !47
  %58 = add i64 %57, 1
  store i64 %58, ptr %10, align 8, !tbaa !47
  br label %18, !llvm.loop !89

59:                                               ; preds = %18
  %60 = load ptr, ptr %6, align 8, !tbaa !8
  %61 = call i32 (ptr, ptr, ...) @BIO_printf(ptr noundef %60, ptr noundef @.str.14)
  %62 = icmp sle i32 %61, 0
  br i1 %62, label %63, label %64

63:                                               ; preds = %59
  store i32 0, ptr %5, align 4
  store i32 1, ptr %11, align 4
  br label %65

64:                                               ; preds = %59
  store i32 1, ptr %5, align 4
  store i32 1, ptr %11, align 4
  br label %65

65:                                               ; preds = %64, %63, %54, %38, %33, %16
  call void @llvm.lifetime.end.p0(i64 8, ptr %10) #8
  %66 = load i32, ptr %5, align 4
  ret i32 %66
}