; Function Attrs: nounwind uwtable
define range(i32 0, 2) i32 @ossl_bio_print_labeled_buf(ptr noundef %0, ptr noundef %1, ptr noundef readonly captures(none) %2, i64 noundef %3) local_unnamed_addr #0 {
  %5 = tail call i32 (ptr, ptr, ...) @BIO_printf(ptr noundef %0, ptr noundef nonnull @.str.15, ptr noundef %1) #8
  %6 = icmp slt i32 %5, 1
  br i1 %6, label %.loopexit, label %.preheader

.preheader:                                       ; preds = %4
  %.not18 = icmp eq i64 %3, 0
  br i1 %.not18, label %._crit_edge, label %.lr.ph

.lr.ph:                                           ; preds = %.preheader
  %7 = add i64 %3, -1
  br label %10

8:                                                ; preds = %20
  %9 = add nuw i64 %.017, 1
  %exitcond.not = icmp eq i64 %9, %3
  br i1 %exitcond.not, label %._crit_edge, label %10, !llvm.loop !66

10:                                               ; preds = %.lr.ph, %8
  %.017 = phi i64 [ 0, %.lr.ph ], [ %9, %8 ]
  %11 = urem i64 %.017, 15
  %12 = icmp eq i64 %11, 0
  br i1 %12, label %13, label %20

13:                                               ; preds = %10
  %.not = icmp eq i64 %.017, 0
  br i1 %.not, label %17, label %14

14:                                               ; preds = %13
  %15 = tail call i32 (ptr, ptr, ...) @BIO_printf(ptr noundef %0, ptr noundef nonnull @.str.14) #8
  %16 = icmp slt i32 %15, 1
  br i1 %16, label %.loopexit, label %17

17:                                               ; preds = %14, %13
  %18 = tail call i32 (ptr, ptr, ...) @BIO_printf(ptr noundef %0, ptr noundef nonnull @.str.16) #8
  %19 = icmp slt i32 %18, 1
  br i1 %19, label %.loopexit, label %20

20:                                               ; preds = %17, %10
  %21 = getelementptr inbounds nuw i8, ptr %2, i64 %.017
  %22 = load i8, ptr %21, align 1, !tbaa !62
  %23 = zext i8 %22 to i32
  %24 = icmp eq i64 %.017, %7
  %25 = select i1 %24, ptr @.str.3, ptr @.str.13
  %26 = tail call i32 (ptr, ptr, ...) @BIO_printf(ptr noundef %0, ptr noundef nonnull @.str.17, i32 noundef %23, ptr noundef nonnull %25) #8
  %27 = icmp slt i32 %26, 1
  br i1 %27, label %.loopexit, label %8

._crit_edge:                                      ; preds = %8, %.preheader
  %28 = tail call i32 (ptr, ptr, ...) @BIO_printf(ptr noundef %0, ptr noundef nonnull @.str.14) #8
  %29 = icmp sgt i32 %28, 0
  %. = zext i1 %29 to i32
  br label %.loopexit

.loopexit:                                        ; preds = %20, %17, %14, %._crit_edge, %4
  %.015 = phi i32 [ 0, %4 ], [ %., %._crit_edge ], [ 0, %14 ], [ 0, %17 ], [ 0, %20 ]
  ret i32 %.015
}